; Function Attrs: nounwind uwtable
define internal fastcc range(i32 0, 2) i32 @param_push_num(ptr noundef captures(none) %0, ptr noundef %1, ptr noundef nonnull readonly captures(none) %2, i64 noundef range(i64 4, 9) %3, i32 noundef range(i32 1, 4) %4) unnamed_addr #0 {
  %6 = tail call noalias ptr @CRYPTO_zalloc(i64 noundef 56, ptr noundef nonnull @.str, i32 noundef 55) #7
  %7 = icmp eq ptr %6, null
  br i1 %7, label %21, label %8

8:                                                ; preds = %5
  store ptr %1, ptr %6, align 8, !tbaa !14
  %9 = getelementptr inbounds nuw i8, ptr %6, i64 8
  store i32 %4, ptr %9, align 8, !tbaa !18
  %10 = getelementptr inbounds nuw i8, ptr %6, i64 16
  store i64 %3, ptr %10, align 8, !tbaa !19
  %11 = tail call i64 @ossl_param_bytes_to_blocks(i64 noundef %3) #7
  %12 = getelementptr inbounds nuw i8, ptr %6, i64 24
  store i64 %11, ptr %12, align 8, !tbaa !20
  %13 = getelementptr inbounds nuw i8, ptr %6, i64 12
  store i32 0, ptr %13, align 4, !tbaa !21
  %14 = load i64, ptr %0, align 8, !tbaa !22
  %15 = add i64 %14, %11
  store i64 %15, ptr %0, align 8, !tbaa !22
  %16 = getelementptr inbounds nuw i8, ptr %0, i64 16
  %17 = load ptr, ptr %16, align 8, !tbaa !3
  %18 = tail call i32 @OPENSSL_sk_push(ptr noundef %17, ptr noundef nonnull %6) #7
  %19 = icmp slt i32 %18, 1
  br i1 %19, label %20, label %param_push.exit

20:                                               ; preds = %8
  tail call void @CRYPTO_free(ptr noundef nonnull %6, ptr noundef nonnull @.str, i32 noundef 68) #7
  br label %21

21:                                               ; preds = %5, %20
  tail call void @ERR_new() #7
  tail call void @ERR_set_debug(ptr noundef nonnull @.str, i32 noundef 80, ptr noundef nonnull @__func__.param_push_num) #7
  tail call void (i32, i32, ptr, ...) @ERR_set_error(i32 noundef 15, i32 noundef 786690, ptr noundef null) #7
  br label %23

param_push.exit:                                  ; preds = %8
  %22 = getelementptr inbounds nuw i8, ptr %6, i64 48
  tail call void @llvm.memcpy.p0.p0.i64(ptr noundef nonnull align 8 dereferenceable(1) %22, ptr noundef nonnull align 1 dereferenceable(1) %2, i64 %3, i1 false)
  br label %23

23:                                               ; preds = %param_push.exit, %21
  %.0 = phi i32 [ 0, %21 ], [ 1, %param_push.exit ]
  ret i32 %.0
}